; Function Attrs: mustprogress nofree norecurse nosync nounwind willreturn memory(argmem: read) uwtable
define noundef signext i8 @_ZNK6icu_7511Formattable9isNumericEv(ptr nocapture noundef nonnull readonly align 8 dereferenceable(112) %this) local_unnamed_addr #9 align 2 {
entry:
  %fType = getelementptr inbounds i8, ptr %this, i64 40
  %0 = load i32, ptr %fType, align 8
  %1 = icmp ult i32 %0, 6
  %switch.cast = zext i32 %0 to i48
  %switch.shiftamt = shl nuw nsw i48 %switch.cast, 3
  %switch.downshift = lshr i48 1099511693568, %switch.shiftamt
  %switch.masked = trunc i48 %switch.downshift to i8
  %retval.0 = select i1 %1, i8 %switch.masked, i8 0
  ret i8 %retval.0
}